target datalayout = "e-m:e-p270:32:32-p271:32:32-p272:64:64-i64:64-i128:128-f80:128-n8:16:32:64-S128"
target triple = "x86_64-pc-linux-gnu"

%struct.strvec = type { ptr, i64, i64 }
%struct.diff_queue_struct = type { ptr, i32, i32 }
%struct.range_set = type { i32, i32, ptr }
%struct.pathspec = type { i32, i8, i32, i32, ptr }
%struct.diff_options = type { ptr, ptr, i32, i32, ptr, i32, ptr, i64, i64, ptr, ptr, ptr, ptr, %struct.diff_flags, i32, i32, i32, i32, i32, i32, i32, i32, i32, i32, i32, i32, i32, i32, i32, i32, i32, i32, i32, i32, i32, i32, ptr, i32, ptr, i32, i32, ptr, i64, i64, i32, i32, i32, i32, ptr, i32, i32, ptr, i32, i32, ptr, ptr, i32, [3 x i8], %struct.pathspec, ptr, ptr, ptr, ptr, ptr, ptr, ptr, ptr, i32, ptr, i32, i32, ptr, ptr, i32 }
%struct.diff_flags = type { i32, i32, i32, i32, i32, i32, i32, i32, i32, i32, i32, i32, i32, i32, i32, i32, i32, i32, i32, i32, i32, i32, i32, i32, i32, i32, i32, i32, i32, i32, i32, i32, i32, i32, i32 }
%struct.line_log_data = type { ptr, ptr, %struct.range_set, ptr, %struct.diff_ranges }
%struct.diff_ranges = type { %struct.range_set, %struct.range_set }
%struct.object_id = type { [32 x i8], i32 }
%struct.diff_filespec = type { %struct.object_id, ptr, ptr, ptr, i64, i32, i32, i16, i16, ptr }
%struct.diff_filepair = type { ptr, ptr, i16, i8, i8 }
%struct.pathspec_item = type { ptr, ptr, i32, i32, i32, i32, i32, i32, ptr, ptr }

@__const.parse_pathspec_from_ranges.array = private unnamed_addr constant %struct.strvec { ptr @empty_strvec, i64 0, i64 0 }, align 8
@.str.9 = private unnamed_addr constant [1 x i8] zeroinitializer, align 1
@diff_queued_diff = external global %struct.diff_queue_struct, align 8

; Function Attrs: nounwind uwtable
define internal void @move_diff_queue(ptr noundef %0, ptr noundef %1) #0 {
  %3 = alloca ptr, align 8
  %4 = alloca ptr, align 8
  store ptr %0, ptr %3, align 8, !tbaa !156
  store ptr %1, ptr %4, align 8, !tbaa !156
  %5 = load ptr, ptr %3, align 8, !tbaa !156
  %6 = load ptr, ptr %4, align 8, !tbaa !156
  call void @llvm.memcpy.p0.p0.i64(ptr align 8 %5, ptr align 8 %6, i64 16, i1 false)
  %7 = load ptr, ptr %4, align 8, !tbaa !156
  call void @diff_queue_init(ptr noundef %7)
  ret void
}

; Function Attrs: inlinehint nounwind uwtable
define internal i32 @diff_might_be_rename() #3 {
  %1 = alloca i32, align 4
  %2 = alloca i32, align 4
  %3 = alloca i32, align 4
  call void @llvm.lifetime.start.p0(i64 4, ptr %2) #9
  store i32 0, ptr %2, align 4, !tbaa !20
  br label %4

4:                                                ; preds = %22, %0
  %5 = load i32, ptr %2, align 4, !tbaa !20
  %6 = load i32, ptr getelementptr inbounds nuw (%struct.diff_queue_struct, ptr @diff_queued_diff, i32 0, i32 2), align 4, !tbaa !212
  %7 = icmp slt i32 %5, %6
  br i1 %7, label %8, label %25

8:                                                ; preds = %4
  %9 = load ptr, ptr @diff_queued_diff, align 8, !tbaa !215
  %10 = load i32, ptr %2, align 4, !tbaa !20
  %11 = sext i32 %10 to i64
  %12 = getelementptr inbounds ptr, ptr %9, i64 %11
  %13 = load ptr, ptr %12, align 8, !tbaa !190
  %14 = getelementptr inbounds nuw %struct.diff_filepair, ptr %13, i32 0, i32 0
  %15 = load ptr, ptr %14, align 8, !tbaa !194
  %16 = getelementptr inbounds nuw %struct.diff_filespec, ptr %15, i32 0, i32 7
  %17 = load i16, ptr %16, align 8, !tbaa !225
  %18 = zext i16 %17 to i32
  %19 = icmp ne i32 %18, 0
  br i1 %19, label %21, label %20

20:                                               ; preds = %8
  store i32 1, ptr %1, align 4
  store i32 1, ptr %3, align 4
  br label %26

21:                                               ; preds = %8
  br label %22

22:                                               ; preds = %21
  %23 = load i32, ptr %2, align 4, !tbaa !20
  %24 = add nsw i32 %23, 1
  store i32 %24, ptr %2, align 4, !tbaa !20
  br label %4, !llvm.loop !226

25:                                               ; preds = %4
  store i32 0, ptr %1, align 4
  store i32 1, ptr %3, align 4
  br label %26

26:                                               ; preds = %25, %20
  call void @llvm.lifetime.end.p0(i64 4, ptr %2) #9
  %27 = load i32, ptr %1, align 4
  ret i32 %27
}

; Function Attrs: nounwind uwtable
define internal void @parse_pathspec_from_ranges(ptr noundef %0, ptr noundef %1) #0 {
  %3 = alloca ptr, align 8
  %4 = alloca ptr, align 8
  %5 = alloca ptr, align 8
  %6 = alloca %struct.strvec, align 8
  store ptr %0, ptr %3, align 8, !tbaa !133
  store ptr %1, ptr %4, align 8, !tbaa !81
  call void @llvm.lifetime.start.p0(i64 8, ptr %5) #9
  call void @llvm.lifetime.start.p0(i64 24, ptr %6) #9
  call void @llvm.memcpy.p0.p0.i64(ptr align 8 %6, ptr align 8 @__const.parse_pathspec_from_ranges.array, i64 24, i1 false)
  %7 = load ptr, ptr %4, align 8, !tbaa !81
  store ptr %7, ptr %5, align 8, !tbaa !81
  br label %8

8:                                                ; preds = %16, %2
  %9 = load ptr, ptr %5, align 8, !tbaa !81
  %10 = icmp ne ptr %9, null
  br i1 %10, label %11, label %20

11:                                               ; preds = %8
  %12 = load ptr, ptr %5, align 8, !tbaa !81
  %13 = getelementptr inbounds nuw %struct.line_log_data, ptr %12, i32 0, i32 1
  %14 = load ptr, ptr %13, align 8, !tbaa !135
  %15 = call ptr @strvec_push(ptr noundef %6, ptr noundef %14)
  br label %16

16:                                               ; preds = %11
  %17 = load ptr, ptr %5, align 8, !tbaa !81
  %18 = getelementptr inbounds nuw %struct.line_log_data, ptr %17, i32 0, i32 0
  %19 = load ptr, ptr %18, align 8, !tbaa !131
  store ptr %19, ptr %5, align 8, !tbaa !81
  br label %8, !llvm.loop !136

20:                                               ; preds = %8
  %21 = load ptr, ptr %3, align 8, !tbaa !133
  %22 = getelementptr inbounds nuw %struct.strvec, ptr %6, i32 0, i32 0
  %23 = load ptr, ptr %22, align 8, !tbaa !137
  call void @parse_pathspec(ptr noundef %21, i32 noundef 0, i32 noundef 2, ptr noundef @.str.9, ptr noundef %23)
  call void @strvec_clear(ptr noundef %6)
  call void @llvm.lifetime.end.p0(i64 24, ptr %6) #9
  call void @llvm.lifetime.end.p0(i64 8, ptr %5) #9
  ret void
}

; Function Attrs: nounwind uwtable
define internal i32 @same_paths_in_pathspec_and_range(ptr noundef %0, ptr noundef %1) #0 {
  %3 = alloca i32, align 4
  %4 = alloca ptr, align 8
  %5 = alloca ptr, align 8
  %6 = alloca i32, align 4
  %7 = alloca ptr, align 8
  %8 = alloca i32, align 4
  store ptr %0, ptr %4, align 8, !tbaa !133
  store ptr %1, ptr %5, align 8, !tbaa !81
  call void @llvm.lifetime.start.p0(i64 4, ptr %6) #9
  call void @llvm.lifetime.start.p0(i64 8, ptr %7) #9
  store i32 0, ptr %6, align 4, !tbaa !20
  %9 = load ptr, ptr %5, align 8, !tbaa !81
  store ptr %9, ptr %7, align 8, !tbaa !81
  br label %10

10:                                               ; preds = %37, %2
  %11 = load i32, ptr %6, align 4, !tbaa !20
  %12 = load ptr, ptr %4, align 8, !tbaa !133
  %13 = getelementptr inbounds nuw %struct.pathspec, ptr %12, i32 0, i32 0
  %14 = load i32, ptr %13, align 8, !tbaa !218
  %15 = icmp slt i32 %11, %14
  br i1 %15, label %16, label %19

16:                                               ; preds = %10
  %17 = load ptr, ptr %7, align 8, !tbaa !81
  %18 = icmp ne ptr %17, null
  br label %19

19:                                               ; preds = %16, %10
  %20 = phi i1 [ false, %10 ], [ %18, %16 ]
  br i1 %20, label %21, label %43

21:                                               ; preds = %19
  %22 = load ptr, ptr %4, align 8, !tbaa !133
  %23 = getelementptr inbounds nuw %struct.pathspec, ptr %22, i32 0, i32 4
  %24 = load ptr, ptr %23, align 8, !tbaa !219
  %25 = load i32, ptr %6, align 4, !tbaa !20
  %26 = sext i32 %25 to i64
  %27 = getelementptr inbounds %struct.pathspec_item, ptr %24, i64 %26
  %28 = getelementptr inbounds nuw %struct.pathspec_item, ptr %27, i32 0, i32 0
  %29 = load ptr, ptr %28, align 8, !tbaa !220
  %30 = load ptr, ptr %7, align 8, !tbaa !81
  %31 = getelementptr inbounds nuw %struct.line_log_data, ptr %30, i32 0, i32 1
  %32 = load ptr, ptr %31, align 8, !tbaa !135
  %33 = call i32 @strcmp(ptr noundef %29, ptr noundef %32) #11
  %34 = icmp ne i32 %33, 0
  br i1 %34, label %35, label %36

35:                                               ; preds = %21
  store i32 0, ptr %3, align 4
  store i32 1, ptr %8, align 4
  br label %54

36:                                               ; preds = %21
  br label %37

37:                                               ; preds = %36
  %38 = load i32, ptr %6, align 4, !tbaa !20
  %39 = add nsw i32 %38, 1
  store i32 %39, ptr %6, align 4, !tbaa !20
  %40 = load ptr, ptr %7, align 8, !tbaa !81
  %41 = getelementptr inbounds nuw %struct.line_log_data, ptr %40, i32 0, i32 0
  %42 = load ptr, ptr %41, align 8, !tbaa !131
  store ptr %42, ptr %7, align 8, !tbaa !81
  br label %10, !llvm.loop !224

43:                                               ; preds = %19
  %44 = load i32, ptr %6, align 4, !tbaa !20
  %45 = load ptr, ptr %4, align 8, !tbaa !133
  %46 = getelementptr inbounds nuw %struct.pathspec, ptr %45, i32 0, i32 0
  %47 = load i32, ptr %46, align 8, !tbaa !218
  %48 = icmp slt i32 %44, %47
  br i1 %48, label %52, label %49

49:                                               ; preds = %43
  %50 = load ptr, ptr %7, align 8, !tbaa !81
  %51 = icmp ne ptr %50, null
  br i1 %51, label %52, label %53

52:                                               ; preds = %49, %43
  store i32 0, ptr %3, align 4
  store i32 1, ptr %8, align 4
  br label %54

53:                                               ; preds = %49
  store i32 1, ptr %3, align 4
  store i32 1, ptr %8, align 4
  br label %54

54:                                               ; preds = %53, %52, %35
  call void @llvm.lifetime.end.p0(i64 8, ptr %7) #9
  call void @llvm.lifetime.end.p0(i64 4, ptr %6) #9
  %55 = load i32, ptr %3, align 4
  ret i32 %55
}

; Function Attrs: nounwind uwtable
define internal void @queue_diffs(ptr noundef %0, ptr noundef %1, ptr noundef %2, ptr noundef %3, ptr noundef %4) #0 {
  %6 = alloca ptr, align 8
  %7 = alloca ptr, align 8
  %8 = alloca ptr, align 8
  %9 = alloca ptr, align 8
  %10 = alloca ptr, align 8
  %11 = alloca ptr, align 8
  %12 = alloca ptr, align 8
  store ptr %0, ptr %6, align 8, !tbaa !81
  store ptr %1, ptr %7, align 8, !tbaa !191
  store ptr %2, ptr %8, align 8, !tbaa !156
  store ptr %3, ptr %9, align 8, !tbaa !32
  store ptr %4, ptr %10, align 8, !tbaa !32
  call void @llvm.lifetime.start.p0(i64 8, ptr %11) #9
  call void @llvm.lifetime.start.p0(i64 8, ptr %12) #9
  %13 = load ptr, ptr %9, align 8, !tbaa !32
  %14 = call ptr @get_commit_tree_oid(ptr noundef %13)
  store ptr %14, ptr %11, align 8, !tbaa !210
  %15 = load ptr, ptr %10, align 8, !tbaa !32
  %16 = icmp ne ptr %15, null
  br i1 %16, label %17, label %20

17:                                               ; preds = %5
  %18 = load ptr, ptr %10, align 8, !tbaa !32
  %19 = call ptr @get_commit_tree_oid(ptr noundef %18)
  br label %21

20:                                               ; preds = %5
  br label %21

21:                                               ; preds = %20, %17
  %22 = phi ptr [ %19, %17 ], [ null, %20 ]
  store ptr %22, ptr %12, align 8, !tbaa !210
  %23 = load ptr, ptr %7, align 8, !tbaa !191
  %24 = getelementptr inbounds nuw %struct.diff_options, ptr %23, i32 0, i32 20
  %25 = load i32, ptr %24, align 4, !tbaa !211
  %26 = icmp ne i32 %25, 0
  br i1 %26, label %27, label %39

27:                                               ; preds = %21
  %28 = load ptr, ptr %7, align 8, !tbaa !191
  %29 = getelementptr inbounds nuw %struct.diff_options, ptr %28, i32 0, i32 58
  %30 = load ptr, ptr %6, align 8, !tbaa !81
  %31 = call i32 @same_paths_in_pathspec_and_range(ptr noundef %29, ptr noundef %30)
  %32 = icmp ne i32 %31, 0
  br i1 %32, label %39, label %33

33:                                               ; preds = %27
  %34 = load ptr, ptr %7, align 8, !tbaa !191
  %35 = getelementptr inbounds nuw %struct.diff_options, ptr %34, i32 0, i32 58
  call void @clear_pathspec(ptr noundef %35)
  %36 = load ptr, ptr %7, align 8, !tbaa !191
  %37 = getelementptr inbounds nuw %struct.diff_options, ptr %36, i32 0, i32 58
  %38 = load ptr, ptr %6, align 8, !tbaa !81
  call void @parse_pathspec_from_ranges(ptr noundef %37, ptr noundef %38)
  br label %39

39:                                               ; preds = %33, %27, %21
  call void @diff_queue_clear(ptr noundef @diff_queued_diff)
  %40 = load ptr, ptr %12, align 8, !tbaa !210
  %41 = load ptr, ptr %11, align 8, !tbaa !210
  %42 = load ptr, ptr %7, align 8, !tbaa !191
  call void @diff_tree_oid(ptr noundef %40, ptr noundef %41, ptr noundef @.str.9, ptr noundef %42)
  %43 = load ptr, ptr %7, align 8, !tbaa !191
  %44 = getelementptr inbounds nuw %struct.diff_options, ptr %43, i32 0, i32 20
  %45 = load i32, ptr %44, align 4, !tbaa !211
  %46 = icmp ne i32 %45, 0
  br i1 %46, label %47, label %59

47:                                               ; preds = %39
  %48 = call i32 @diff_might_be_rename()
  %49 = icmp ne i32 %48, 0
  br i1 %49, label %50, label %59

50:                                               ; preds = %47
  %51 = load ptr, ptr %7, align 8, !tbaa !191
  %52 = getelementptr inbounds nuw %struct.diff_options, ptr %51, i32 0, i32 58
  call void @clear_pathspec(ptr noundef %52)
  call void @diff_queue_clear(ptr noundef @diff_queued_diff)
  %53 = load ptr, ptr %12, align 8, !tbaa !210
  %54 = load ptr, ptr %11, align 8, !tbaa !210
  %55 = load ptr, ptr %7, align 8, !tbaa !191
  call void @diff_tree_oid(ptr noundef %53, ptr noundef %54, ptr noundef @.str.9, ptr noundef %55)
  %56 = load ptr, ptr %6, align 8, !tbaa !81
  call void @filter_diffs_for_paths(ptr noundef %56, i32 noundef 1)
  %57 = load ptr, ptr %7, align 8, !tbaa !191
  call void @diffcore_std(ptr noundef %57)
  %58 = load ptr, ptr %6, align 8, !tbaa !81
  call void @filter_diffs_for_paths(ptr noundef %58, i32 noundef 0)
  br label %59

59:                                               ; preds = %50, %47, %39
  %60 = load ptr, ptr %8, align 8, !tbaa !156
  call void @move_diff_queue(ptr noundef %60, ptr noundef @diff_queued_diff)
  call void @llvm.lifetime.end.p0(i64 8, ptr %12) #9
  call void @llvm.lifetime.end.p0(i64 8, ptr %11) #9
  ret void
}