; Function Attrs: nounwind uwtable
define internal fastcc void @queue_diffs(ptr noundef nonnull readonly captures(none) %0, ptr noundef %1, ptr noundef writeonly captures(none) %2, ptr noundef %3, ptr noundef %4) unnamed_addr #0 {
  %6 = alloca %struct.strvec, align 8
  %7 = tail call ptr @get_commit_tree_oid(ptr noundef %3) #16
  %.not = icmp eq ptr %4, null
  br i1 %.not, label %10, label %8

8:                                                ; preds = %5
  %9 = tail call ptr @get_commit_tree_oid(ptr noundef nonnull %4) #16
  br label %10

10:                                               ; preds = %5, %8
  %11 = phi ptr [ %9, %8 ], [ null, %5 ]
  %12 = getelementptr inbounds nuw i8, ptr %1, i64 260
  %13 = load i32, ptr %12, align 4, !tbaa !173
  %.not21 = icmp eq i32 %13, 0
  br i1 %.not21, label %37, label %14

14:                                               ; preds = %10
  %15 = getelementptr inbounds nuw i8, ptr %1, i64 456
  %16 = load i32, ptr %15, align 8, !tbaa !174
  %17 = icmp sgt i32 %16, 0
  br i1 %17, label %.lr.ph.i, label %same_paths_in_pathspec_and_range.exit.thread

.lr.ph.i:                                         ; preds = %14
  %18 = getelementptr inbounds nuw i8, ptr %1, i64 472
  %19 = load ptr, ptr %18, align 8, !tbaa !175
  %20 = zext nneg i32 %16 to i64
  br label %21

21:                                               ; preds = %27, %.lr.ph.i
  %indvars.iv.i = phi i64 [ 0, %.lr.ph.i ], [ %indvars.iv.next.i, %27 ]
  %.019.i = phi ptr [ %0, %.lr.ph.i ], [ %28, %27 ]
  %22 = getelementptr inbounds nuw %struct.pathspec_item, ptr %19, i64 %indvars.iv.i
  %23 = load ptr, ptr %22, align 8, !tbaa !176
  %24 = getelementptr inbounds nuw i8, ptr %.019.i, i64 8
  %25 = load ptr, ptr %24, align 8, !tbaa !113
  %26 = tail call i32 @strcmp(ptr noundef nonnull dereferenceable(1) %23, ptr noundef nonnull dereferenceable(1) %25) #18
  %.not.i = icmp eq i32 %26, 0
  br i1 %.not.i, label %27, label %same_paths_in_pathspec_and_range.exit.thread

27:                                               ; preds = %21
  %indvars.iv.next.i = add nuw nsw i64 %indvars.iv.i, 1
  %28 = load ptr, ptr %.019.i, align 8, !tbaa !118
  %29 = icmp samesign ult i64 %indvars.iv.next.i, %20
  %30 = icmp ne ptr %28, null
  %31 = select i1 %29, i1 %30, i1 false
  br i1 %31, label %21, label %same_paths_in_pathspec_and_range.exit, !llvm.loop !180

same_paths_in_pathspec_and_range.exit:            ; preds = %27
  %32 = select i1 %29, i1 true, i1 %30
  br i1 %32, label %same_paths_in_pathspec_and_range.exit.thread, label %37

same_paths_in_pathspec_and_range.exit.thread:     ; preds = %21, %14, %same_paths_in_pathspec_and_range.exit
  tail call void @clear_pathspec(ptr noundef nonnull %15) #16
  call void @llvm.lifetime.start.p0(i64 24, ptr nonnull %6) #16
  call void @llvm.memcpy.p0.p0.i64(ptr noundef nonnull align 8 dereferenceable(24) %6, ptr noundef nonnull align 8 dereferenceable(24) @__const.parse_pathspec_from_ranges.array, i64 24, i1 false)
  br label %.lr.ph.i25

.lr.ph.i25:                                       ; preds = %same_paths_in_pathspec_and_range.exit.thread, %.lr.ph.i25
  %.06.i = phi ptr [ %36, %.lr.ph.i25 ], [ %0, %same_paths_in_pathspec_and_range.exit.thread ]
  %33 = getelementptr inbounds nuw i8, ptr %.06.i, i64 8
  %34 = load ptr, ptr %33, align 8, !tbaa !113
  %35 = call ptr @strvec_push(ptr noundef nonnull %6, ptr noundef %34) #16
  %36 = load ptr, ptr %.06.i, align 8, !tbaa !118
  %.not.i26 = icmp eq ptr %36, null
  br i1 %.not.i26, label %parse_pathspec_from_ranges.exit, label %.lr.ph.i25, !llvm.loop !124

parse_pathspec_from_ranges.exit:                  ; preds = %.lr.ph.i25
  %.pre.i = load ptr, ptr %6, align 8, !tbaa !125
  call void @parse_pathspec(ptr noundef nonnull %15, i32 noundef 0, i32 noundef 2, ptr noundef nonnull @.str.9, ptr noundef %.pre.i) #16
  call void @strvec_clear(ptr noundef nonnull %6) #16
  call void @llvm.lifetime.end.p0(i64 24, ptr nonnull %6) #16
  br label %37

37:                                               ; preds = %parse_pathspec_from_ranges.exit, %same_paths_in_pathspec_and_range.exit, %10
  call void @diff_queue_clear(ptr noundef nonnull @diff_queued_diff) #16
  call void @diff_tree_oid(ptr noundef %11, ptr noundef %7, ptr noundef nonnull @.str.9, ptr noundef %1) #16
  %38 = load i32, ptr %12, align 4, !tbaa !173
  %.not23 = icmp eq i32 %38, 0
  br i1 %.not23, label %diff_might_be_rename.exit.thread, label %39

39:                                               ; preds = %37
  %40 = load i32, ptr getelementptr inbounds nuw (i8, ptr @diff_queued_diff, i64 12), align 4, !tbaa !181
  %41 = icmp sgt i32 %40, 0
  br i1 %41, label %.lr.ph.i28, label %diff_might_be_rename.exit.thread

.lr.ph.i28:                                       ; preds = %39
  %42 = load ptr, ptr @diff_queued_diff, align 8, !tbaa !184
  %wide.trip.count.i = zext nneg i32 %40 to i64
  br label %44

43:                                               ; preds = %44
  %indvars.iv.next.i31 = add nuw nsw i64 %indvars.iv.i29, 1
  %exitcond.not.i = icmp eq i64 %indvars.iv.next.i31, %wide.trip.count.i
  br i1 %exitcond.not.i, label %diff_might_be_rename.exit.thread, label %44, !llvm.loop !185

44:                                               ; preds = %43, %.lr.ph.i28
  %indvars.iv.i29 = phi i64 [ 0, %.lr.ph.i28 ], [ %indvars.iv.next.i31, %43 ]
  %45 = getelementptr inbounds nuw ptr, ptr %42, i64 %indvars.iv.i29
  %46 = load ptr, ptr %45, align 8, !tbaa !186
  %47 = load ptr, ptr %46, align 8, !tbaa !132
  %48 = getelementptr inbounds nuw i8, ptr %47, i64 80
  %49 = load i16, ptr %48, align 8, !tbaa !187
  %.not.i30 = icmp eq i16 %49, 0
  br i1 %.not.i30, label %diff_might_be_rename.exit, label %43

diff_might_be_rename.exit:                        ; preds = %44
  %50 = getelementptr inbounds nuw i8, ptr %1, i64 456
  call void @clear_pathspec(ptr noundef nonnull %50) #16
  call void @diff_queue_clear(ptr noundef nonnull @diff_queued_diff) #16
  call void @diff_tree_oid(ptr noundef %11, ptr noundef %7, ptr noundef nonnull @.str.9, ptr noundef %1) #16
  call fastcc void @filter_diffs_for_paths(ptr noundef %0, i32 noundef 1)
  call void @diffcore_std(ptr noundef %1) #16
  call fastcc void @filter_diffs_for_paths(ptr noundef %0, i32 noundef 0)
  br label %diff_might_be_rename.exit.thread

diff_might_be_rename.exit.thread:                 ; preds = %43, %39, %diff_might_be_rename.exit, %37
  call void @llvm.memcpy.p0.p0.i64(ptr noundef nonnull align 8 dereferenceable(16) %2, ptr noundef nonnull align 8 dereferenceable(16) @diff_queued_diff, i64 16, i1 false)
  call void @diff_queue_init(ptr noundef nonnull @diff_queued_diff) #16
  ret void
}